target datalayout = "e-m:e-p270:32:32-p271:32:32-p272:64:64-i64:64-i128:128-f80:128-n8:16:32:64-S128"
target triple = "x86_64-pc-linux-gnu"

@.str = private unnamed_addr constant [11 x i8] c"   %c = ( \00", align 1
@.str.1 = private unnamed_addr constant [5 x i8] c"%c%s\00", align 1
@.str.2 = private unnamed_addr constant [1 x i8] zeroinitializer, align 1
@.str.3 = private unnamed_addr constant [2 x i8] c",\00", align 1
@.str.4 = private unnamed_addr constant [5 x i8] c" )  \00", align 1

; Function Attrs: nounwind uwtable
define internal i32 @Abc_InfoHasBit(ptr noundef %0, i32 noundef %1) #0 {
  %3 = alloca ptr, align 8
  %4 = alloca i32, align 4
  store ptr %0, ptr %3, align 8
  store i32 %1, ptr %4, align 4
  %5 = load ptr, ptr %3, align 8
  %6 = load i32, ptr %4, align 4
  %7 = ashr i32 %6, 5
  %8 = sext i32 %7 to i64
  %9 = getelementptr inbounds i32, ptr %5, i64 %8
  %10 = load i32, ptr %9, align 4
  %11 = load i32, ptr %4, align 4
  %12 = and i32 %11, 31
  %13 = shl i32 1, %12
  %14 = and i32 %10, %13
  %15 = icmp ugt i32 %14, 0
  %16 = zext i1 %15 to i32
  ret i32 %16
}

; Function Attrs: nounwind uwtable
define void @Abc_TruthNpnPrint(ptr noundef %0, i32 noundef %1, i32 noundef %2) #0 {
  %4 = alloca ptr, align 8
  %5 = alloca i32, align 4
  %6 = alloca i32, align 4
  %7 = alloca [16 x i8], align 16
  %8 = alloca i32, align 4
  store ptr %0, ptr %4, align 8
  store i32 %1, ptr %5, align 4
  store i32 %2, ptr %6, align 4
  store i32 0, ptr %8, align 4
  br label %9

9:                                                ; preds = %32, %3
  %10 = load i32, ptr %8, align 4
  %11 = load i32, ptr %6, align 4
  %12 = icmp slt i32 %10, %11
  br i1 %12, label %13, label %35

13:                                               ; preds = %9
  %14 = load ptr, ptr %4, align 8
  %15 = icmp ne ptr %14, null
  br i1 %15, label %16, label %23

16:                                               ; preds = %13
  %17 = load ptr, ptr %4, align 8
  %18 = load i32, ptr %8, align 4
  %19 = sext i32 %18 to i64
  %20 = getelementptr inbounds i8, ptr %17, i64 %19
  %21 = load i8, ptr %20, align 1
  %22 = sext i8 %21 to i32
  br label %26

23:                                               ; preds = %13
  %24 = load i32, ptr %8, align 4
  %25 = add nsw i32 97, %24
  br label %26

26:                                               ; preds = %23, %16
  %27 = phi i32 [ %22, %16 ], [ %25, %23 ]
  %28 = trunc i32 %27 to i8
  %29 = load i32, ptr %8, align 4
  %30 = sext i32 %29 to i64
  %31 = getelementptr inbounds [16 x i8], ptr %7, i64 0, i64 %30
  store i8 %28, ptr %31, align 1
  br label %32

32:                                               ; preds = %26
  %33 = load i32, ptr %8, align 4
  %34 = add nsw i32 %33, 1
  store i32 %34, ptr %8, align 4
  br label %9, !llvm.loop !12

35:                                               ; preds = %9
  %36 = load i32, ptr %6, align 4
  %37 = call i32 @Abc_InfoHasBit(ptr noundef %5, i32 noundef %36)
  %38 = icmp ne i32 %37, 0
  %39 = select i1 %38, i32 90, i32 122
  %40 = call i32 (ptr, ...) @printf(ptr noundef @.str, i32 noundef %39)
  store i32 0, ptr %8, align 4
  br label %41

41:                                               ; preds = %66, %35
  %42 = load i32, ptr %8, align 4
  %43 = load i32, ptr %6, align 4
  %44 = icmp slt i32 %42, %43
  br i1 %44, label %45, label %69

45:                                               ; preds = %41
  %46 = load i32, ptr %8, align 4
  %47 = sext i32 %46 to i64
  %48 = getelementptr inbounds [16 x i8], ptr %7, i64 0, i64 %47
  %49 = load i8, ptr %48, align 1
  %50 = sext i8 %49 to i32
  %51 = load i32, ptr %8, align 4
  %52 = sext i32 %51 to i64
  %53 = getelementptr inbounds [16 x i8], ptr %7, i64 0, i64 %52
  %54 = load i8, ptr %53, align 1
  %55 = sext i8 %54 to i32
  %56 = sub nsw i32 %55, 97
  %57 = call i32 @Abc_InfoHasBit(ptr noundef %5, i32 noundef %56)
  %58 = mul nsw i32 -32, %57
  %59 = add nsw i32 %50, %58
  %60 = load i32, ptr %8, align 4
  %61 = load i32, ptr %6, align 4
  %62 = sub nsw i32 %61, 1
  %63 = icmp eq i32 %60, %62
  %64 = select i1 %63, ptr @.str.2, ptr @.str.3
  %65 = call i32 (ptr, ...) @printf(ptr noundef @.str.1, i32 noundef %59, ptr noundef %64)
  br label %66

66:                                               ; preds = %45
  %67 = load i32, ptr %8, align 4
  %68 = add nsw i32 %67, 1
  store i32 %68, ptr %8, align 4
  br label %41, !llvm.loop !13

69:                                               ; preds = %41
  %70 = call i32 (ptr, ...) @printf(ptr noundef @.str.4)
  ret void
}