; Function Attrs: nofree nounwind uwtable
define void @Abc_TruthNpnPrint(ptr noundef readonly %0, i32 noundef %1, i32 noundef %2) local_unnamed_addr #6 {
  %4 = alloca [16 x i8], align 16
  %5 = icmp sgt i32 %2, 0
  br i1 %5, label %.lr.ph, label %._crit_edge22.critedge

.lr.ph:                                           ; preds = %3
  %.not17 = icmp eq ptr %0, null
  %wide.trip.count = zext nneg i32 %2 to i64
  br i1 %.not17, label %.lr.ph.split.us, label %.lr.ph.split.preheader

.lr.ph.split.preheader:                           ; preds = %.lr.ph
  call void @llvm.memcpy.p0.p0.i64(ptr nonnull align 16 %4, ptr nonnull align 1 %0, i64 %wide.trip.count, i1 false)
  br label %._crit_edge

.lr.ph.split.us:                                  ; preds = %.lr.ph, %.lr.ph.split.us
  %indvars.iv = phi i64 [ %indvars.iv.next, %.lr.ph.split.us ], [ 0, %.lr.ph ]
  %6 = trunc i64 %indvars.iv to i8
  %7 = add i8 %6, 97
  %8 = getelementptr inbounds nuw [16 x i8], ptr %4, i64 0, i64 %indvars.iv
  store i8 %7, ptr %8, align 1
  %indvars.iv.next = add nuw nsw i64 %indvars.iv, 1
  %exitcond.not = icmp eq i64 %indvars.iv.next, %wide.trip.count
  br i1 %exitcond.not, label %._crit_edge, label %.lr.ph.split.us, !llvm.loop !12

._crit_edge:                                      ; preds = %.lr.ph.split.us, %.lr.ph.split.preheader
  %9 = and i32 %2, 31
  %10 = shl nuw i32 1, %9
  %11 = and i32 %1, %10
  %.not = icmp eq i32 %11, 0
  %12 = select i1 %.not, i32 122, i32 90
  %13 = tail call i32 (ptr, ...) @printf(ptr noundef nonnull dereferenceable(1) @.str, i32 noundef %12)
  %14 = add nsw i32 %2, -1
  %15 = zext nneg i32 %14 to i64
  %wide.trip.count29 = zext nneg i32 %2 to i64
  br label %16

16:                                               ; preds = %._crit_edge, %16
  %indvars.iv26 = phi i64 [ 0, %._crit_edge ], [ %indvars.iv.next27, %16 ]
  %17 = getelementptr inbounds nuw [16 x i8], ptr %4, i64 0, i64 %indvars.iv26
  %18 = load i8, ptr %17, align 1
  %19 = sext i8 %18 to i32
  %20 = add nsw i32 %19, 31
  %21 = and i32 %20, 31
  %22 = lshr i32 %1, %21
  %23 = shl i32 %22, 5
  %24 = and i32 %23, 32
  %25 = sub nsw i32 %19, %24
  %26 = icmp eq i64 %indvars.iv26, %15
  %27 = select i1 %26, ptr @.str.2, ptr @.str.3
  %28 = tail call i32 (ptr, ...) @printf(ptr noundef nonnull dereferenceable(1) @.str.1, i32 noundef %25, ptr noundef nonnull %27)
  %indvars.iv.next27 = add nuw nsw i64 %indvars.iv26, 1
  %exitcond30.not = icmp eq i64 %indvars.iv.next27, %wide.trip.count29
  br i1 %exitcond30.not, label %._crit_edge22, label %16, !llvm.loop !13

._crit_edge22.critedge:                           ; preds = %3
  %29 = and i32 %2, 31
  %30 = shl nuw i32 1, %29
  %31 = and i32 %1, %30
  %.not.c = icmp eq i32 %31, 0
  %32 = select i1 %.not.c, i32 122, i32 90
  %33 = tail call i32 (ptr, ...) @printf(ptr noundef nonnull dereferenceable(1) @.str, i32 noundef %32)
  br label %._crit_edge22

._crit_edge22:                                    ; preds = %16, %._crit_edge22.critedge
  %34 = tail call i32 (ptr, ...) @printf(ptr noundef nonnull dereferenceable(1) @.str.4)
  ret void
}